; Function Attrs: nounwind uwtable
define dso_local range(i64 -64, 1) i64 @ZSTD_CCtx_loadDictionary(ptr noundef captures(none) %0, ptr noundef readonly %1, i64 noundef %2) local_unnamed_addr #1 {
  %4 = getelementptr inbounds nuw i8, ptr %0, i64 3584
  %5 = load i32, ptr %4, align 8
  %.not.i = icmp eq i32 %5, 0
  br i1 %.not.i, label %6, label %ZSTD_CCtx_loadDictionary_advanced.exit

6:                                                ; preds = %3
  tail call fastcc void @ZSTD_clearAllDicts(ptr noundef nonnull %0)
  %7 = icmp eq ptr %1, null
  %8 = icmp eq i64 %2, 0
  %or.cond.i = or i1 %7, %8
  br i1 %or.cond.i, label %ZSTD_CCtx_loadDictionary_advanced.exit, label %9

9:                                                ; preds = %6
  %10 = getelementptr inbounds nuw i8, ptr %0, i64 880
  %11 = load i64, ptr %10, align 8
  %.not26.i = icmp eq i64 %11, 0
  br i1 %.not26.i, label %12, label %ZSTD_CCtx_loadDictionary_advanced.exit

12:                                               ; preds = %9
  %13 = getelementptr inbounds nuw i8, ptr %0, i64 848
  %.val.i = load ptr, ptr %13, align 8
  %.not.i.i = icmp eq ptr %.val.i, null
  br i1 %.not.i.i, label %17, label %14

14:                                               ; preds = %12
  %15 = getelementptr i8, ptr %0, i64 864
  %.val27.i = load ptr, ptr %15, align 8
  %16 = tail call ptr %.val.i(ptr noundef %.val27.i, i64 noundef %2) #27
  br label %ZSTD_customMalloc.exit.i

17:                                               ; preds = %12
  %18 = tail call noalias ptr @malloc(i64 noundef %2) #28
  br label %ZSTD_customMalloc.exit.i

ZSTD_customMalloc.exit.i:                         ; preds = %17, %14
  %.0.i.i = phi ptr [ %16, %14 ], [ %18, %17 ]
  %19 = icmp eq ptr %.0.i.i, null
  br i1 %19, label %ZSTD_CCtx_loadDictionary_advanced.exit, label %20

20:                                               ; preds = %ZSTD_customMalloc.exit.i
  tail call void @llvm.memcpy.p0.p0.i64(ptr nonnull align 1 %.0.i.i, ptr nonnull align 1 %1, i64 %2, i1 false)
  %21 = getelementptr inbounds nuw i8, ptr %0, i64 3632
  store ptr %.0.i.i, ptr %21, align 8
  %22 = getelementptr inbounds nuw i8, ptr %0, i64 3640
  store ptr %.0.i.i, ptr %22, align 8
  %23 = getelementptr inbounds nuw i8, ptr %0, i64 3648
  store i64 %2, ptr %23, align 8
  %24 = getelementptr inbounds nuw i8, ptr %0, i64 3656
  store i32 0, ptr %24, align 8
  br label %ZSTD_CCtx_loadDictionary_advanced.exit

ZSTD_CCtx_loadDictionary_advanced.exit:           ; preds = %3, %6, %9, %ZSTD_customMalloc.exit.i, %20
  %.0.i = phi i64 [ 0, %20 ], [ -60, %3 ], [ 0, %6 ], [ -64, %9 ], [ -64, %ZSTD_customMalloc.exit.i ]
  ret i64 %.0.i
}